target datalayout = "e-m:e-p270:32:32-p271:32:32-p272:64:64-i64:64-i128:128-f80:128-n8:16:32:64-S128"
target triple = "x86_64-pc-linux-gnu"

%class.V3Global = type { ptr, ptr, %class.VWidthMinUsage, %"struct.std::atomic", i8, i8, i8, i8, i8, i8, i8, i8, i8, i8, i8, i8, i8, i8, i8, i8, %"class.std::unordered_map", %"class.std::unordered_set", %class.V3Options }
%class.VWidthMinUsage = type { i8 }
%"struct.std::atomic" = type { %"struct.std::__atomic_base" }
%"struct.std::__atomic_base" = type { i32 }
%"class.std::unordered_map" = type { %"class.std::_Hashtable" }
%"class.std::_Hashtable" = type { ptr, i64, %"struct.std::__detail::_Hash_node_base", i64, %"struct.std::__detail::_Prime_rehash_policy", ptr }
%"struct.std::__detail::_Hash_node_base" = type { ptr }
%"struct.std::__detail::_Prime_rehash_policy" = type { float, i64 }
%"class.std::unordered_set" = type { %"class.std::_Hashtable.15" }
%"class.std::_Hashtable.15" = type { ptr, i64, %"struct.std::__detail::_Hash_node_base", i64, %"struct.std::__detail::_Prime_rehash_policy", ptr }
%class.V3Options = type <{ ptr, %"class.std::set", %"class.std::vector.37", %"class.std::vector.37", %"class.std::vector.37", %"class.std::set", %"class.std::set", %"class.std::set", %"class.std::set", %"class.std::set", %"class.std::set", %"class.std::vector.37", %"class.std::vector.37", %"class.std::map", %"class.std::map", %"class.std::map.49", %"class.std::map.54", %"class.std::set", i8, i8, i8, i8, i8, i8, i8, i8, i8, i8, i8, i8, i8, i8, i8, i8, i8, i8, i8, i8, i8, i8, i8, i8, i8, i8, i8, i8, i8, i8, i8, i8, i8, i8, i8, i8, i8, i8, i8, i8, i8, i8, i8, i8, i8, i8, i8, i8, i8, i8, i8, i8, i8, i8, i8, i8, i8, i8, i8, i8, i8, i8, i8, i8, i8, i8, %class.VOptionBool, i8, i8, i8, i8, i8, i8, i8, i8, i8, i8, i8, i8, i8, i32, i32, i32, i32, i32, i32, i32, i32, i32, i8, i8, %class.VOptionBool, i8, i32, i32, i32, i32, i32, i32, i32, i32, %class.VOptionBool, i8, [2 x i8], i32, i32, %class.VTimescale, %class.VTimescale, %class.VTimescale, %class.VTimescale, i32, %class.TraceFormat, [3 x i8], i32, i32, i32, i32, i32, i32, i32, i32, i32, [4 x i8], %"class.std::__cxx11::basic_string", %"class.std::__cxx11::basic_string", %"class.std::__cxx11::basic_string", %"class.std::__cxx11::basic_string", %"class.std::__cxx11::basic_string", %"class.std::__cxx11::basic_string", %"class.std::__cxx11::basic_string", %"class.std::__cxx11::basic_string", %"class.std::__cxx11::basic_string", %"class.std::__cxx11::basic_string", %"class.std::__cxx11::basic_string", %"class.std::__cxx11::basic_string", %"class.std::__cxx11::basic_string", %"class.std::__cxx11::basic_string", %"class.std::__cxx11::basic_string", %"class.std::__cxx11::basic_string", %"class.std::__cxx11::basic_string", %"class.std::__cxx11::basic_string", %"class.std::__cxx11::basic_string", %class.V3LangCode, i8, i8, i8, i8, i8, i8, i8, i8, i8, i8, i8, i8, i8, i8, i8, i8, i8, i8, i8, i8, i8, i8, i8, i8, i8, i8, i8, i8, i8, i8, i8 }>
%"class.std::vector.37" = type { %"struct.std::_Vector_base.38" }
%"struct.std::_Vector_base.38" = type { %"struct.std::_Vector_base<std::__cxx11::basic_string<char>, std::allocator<std::__cxx11::basic_string<char>>>::_Vector_impl" }
%"struct.std::_Vector_base<std::__cxx11::basic_string<char>, std::allocator<std::__cxx11::basic_string<char>>>::_Vector_impl" = type { %"struct.std::_Vector_base<std::__cxx11::basic_string<char>, std::allocator<std::__cxx11::basic_string<char>>>::_Vector_impl_data" }
%"struct.std::_Vector_base<std::__cxx11::basic_string<char>, std::allocator<std::__cxx11::basic_string<char>>>::_Vector_impl_data" = type { ptr, ptr, ptr }
%"class.std::map" = type { %"class.std::_Rb_tree.42" }
%"class.std::_Rb_tree.42" = type { %"struct.std::_Rb_tree<const std::__cxx11::basic_string<char>, std::pair<const std::__cxx11::basic_string<char>, unsigned int>, std::_Select1st<std::pair<const std::__cxx11::basic_string<char>, unsigned int>>, std::less<const std::__cxx11::basic_string<char>>>::_Rb_tree_impl" }
%"struct.std::_Rb_tree<const std::__cxx11::basic_string<char>, std::pair<const std::__cxx11::basic_string<char>, unsigned int>, std::_Select1st<std::pair<const std::__cxx11::basic_string<char>, unsigned int>>, std::less<const std::__cxx11::basic_string<char>>>::_Rb_tree_impl" = type { %"struct.std::_Rb_tree_key_compare.46", %"struct.std::_Rb_tree_header" }
%"struct.std::_Rb_tree_key_compare.46" = type { %"struct.std::less.47" }
%"struct.std::less.47" = type { i8 }
%"struct.std::_Rb_tree_header" = type { %"struct.std::_Rb_tree_node_base", i64 }
%"struct.std::_Rb_tree_node_base" = type { i32, ptr, ptr, ptr }
%"class.std::map.49" = type { %"class.std::_Rb_tree.50" }
%"class.std::_Rb_tree.50" = type { %"struct.std::_Rb_tree<const std::__cxx11::basic_string<char>, std::pair<const std::__cxx11::basic_string<char>, std::__cxx11::basic_string<char>>, std::_Select1st<std::pair<const std::__cxx11::basic_string<char>, std::__cxx11::basic_string<char>>>, std::less<const std::__cxx11::basic_string<char>>>::_Rb_tree_impl" }
%"struct.std::_Rb_tree<const std::__cxx11::basic_string<char>, std::pair<const std::__cxx11::basic_string<char>, std::__cxx11::basic_string<char>>, std::_Select1st<std::pair<const std::__cxx11::basic_string<char>, std::__cxx11::basic_string<char>>>, std::less<const std::__cxx11::basic_string<char>>>::_Rb_tree_impl" = type { %"struct.std::_Rb_tree_key_compare.46", %"struct.std::_Rb_tree_header" }
%"class.std::map.54" = type { %"class.std::_Rb_tree.55" }
%"class.std::_Rb_tree.55" = type { %"struct.std::_Rb_tree<const std::__cxx11::basic_string<char>, std::pair<const std::__cxx11::basic_string<char>, V3HierarchicalBlockOption>, std::_Select1st<std::pair<const std::__cxx11::basic_string<char>, V3HierarchicalBlockOption>>, std::less<const std::__cxx11::basic_string<char>>>::_Rb_tree_impl" }
%"struct.std::_Rb_tree<const std::__cxx11::basic_string<char>, std::pair<const std::__cxx11::basic_string<char>, V3HierarchicalBlockOption>, std::_Select1st<std::pair<const std::__cxx11::basic_string<char>, V3HierarchicalBlockOption>>, std::less<const std::__cxx11::basic_string<char>>>::_Rb_tree_impl" = type { %"struct.std::_Rb_tree_key_compare.46", %"struct.std::_Rb_tree_header" }
%"class.std::set" = type { %"class.std::_Rb_tree" }
%"class.std::_Rb_tree" = type { %"struct.std::_Rb_tree<std::__cxx11::basic_string<char>, std::__cxx11::basic_string<char>, std::_Identity<std::__cxx11::basic_string<char>>, std::less<std::__cxx11::basic_string<char>>>::_Rb_tree_impl" }
%"struct.std::_Rb_tree<std::__cxx11::basic_string<char>, std::__cxx11::basic_string<char>, std::_Identity<std::__cxx11::basic_string<char>>, std::less<std::__cxx11::basic_string<char>>>::_Rb_tree_impl" = type { %"struct.std::_Rb_tree_key_compare", %"struct.std::_Rb_tree_header" }
%"struct.std::_Rb_tree_key_compare" = type { %"struct.std::less" }
%"struct.std::less" = type { i8 }
%class.VOptionBool = type { i8 }
%class.VTimescale = type { i8 }
%class.TraceFormat = type { i8 }
%"class.std::__cxx11::basic_string" = type { %"struct.std::__cxx11::basic_string<char>::_Alloc_hider", i64, %union.anon }
%"struct.std::__cxx11::basic_string<char>::_Alloc_hider" = type { ptr }
%union.anon = type { i64, [8 x i8] }
%class.V3LangCode = type { i8 }
%"class.std::allocator.0" = type { i8 }

@.str.1 = private unnamed_addr constant [114 x i8] c"generated/home/dtcxzyw/WorkSpace/Projects/compilers/llvm-opt-benchmark/bench/verilator/verilator/src/V3Unroll.cpp\00", align 1
@v3Global = external global %class.V3Global, align 8
@_ZZL13dumpTreeLevelvE5level = internal global i32 -1, align 4
@.str.569 = private unnamed_addr constant [5 x i8] c"tree\00", align 1
@.str.570 = private unnamed_addr constant [50 x i8] c"basic_string: construction from null is not valid\00", align 1

; Function Attrs: mustprogress nounwind uwtable
define linkonce_odr dso_local noundef i64 @_ZNSt11char_traitsIcE6lengthEPKc(ptr noundef %0) #7 comdat align 2 {
  %2 = alloca ptr, align 8
  store ptr %0, ptr %2, align 8
  %3 = load ptr, ptr %2, align 8
  %4 = call i64 @strlen(ptr noundef %3) #3
  ret i64 %4
}

; Function Attrs: mustprogress nounwind uwtable
define linkonce_odr dso_local void @_ZNSt7__cxx1112basic_stringIcSt11char_traitsIcESaIcEE12_Alloc_hiderD2Ev(ptr noundef nonnull align 8 dereferenceable(8) %0) unnamed_addr #7 comdat align 2 {
  %2 = alloca ptr, align 8
  store ptr %0, ptr %2, align 8
  %3 = load ptr, ptr %2, align 8
  call void @_ZNSaIcED2Ev(ptr noundef nonnull align 1 dereferenceable(1) %3) #3
  ret void
}

; Function Attrs: mustprogress nounwind uwtable
define linkonce_odr dso_local noundef zeroext i1 @_ZNK9V3Options9availableEv(ptr noundef nonnull align 8 dereferenceable(1560) %0) #7 comdat align 2 {
  %2 = alloca ptr, align 8
  store ptr %0, ptr %2, align 8
  %3 = load ptr, ptr %2, align 8
  %4 = getelementptr inbounds %class.V3Options, ptr %3, i32 0, i32 190
  %5 = load i8, ptr %4, align 2
  %6 = trunc i8 %5 to i1
  ret i1 %6
}

; Function Attrs: mustprogress uwtable
define linkonce_odr dso_local void @_ZNSt7__cxx1112basic_stringIcSt11char_traitsIcESaIcEEC2IS3_EEPKcRKS3_(ptr noundef nonnull align 8 dereferenceable(32) %0, ptr noundef %1, ptr noundef nonnull align 1 dereferenceable(1) %2) unnamed_addr #4 comdat align 2 personality ptr @__gxx_personality_v0 {
  %4 = alloca ptr, align 8
  %5 = alloca ptr, align 8
  %6 = alloca ptr, align 8
  %7 = alloca ptr, align 8
  %8 = alloca i32, align 4
  %9 = alloca ptr, align 8
  store ptr %0, ptr %4, align 8
  store ptr %1, ptr %5, align 8
  store ptr %2, ptr %6, align 8
  %10 = load ptr, ptr %4, align 8
  %11 = getelementptr inbounds %"class.std::__cxx11::basic_string", ptr %10, i32 0, i32 0
  %12 = call noundef ptr @_ZNSt7__cxx1112basic_stringIcSt11char_traitsIcESaIcEE13_M_local_dataEv(ptr noundef nonnull align 8 dereferenceable(32) %10)
  %13 = load ptr, ptr %6, align 8
  call void @_ZNSt7__cxx1112basic_stringIcSt11char_traitsIcESaIcEE12_Alloc_hiderC1EPcRKS3_(ptr noundef nonnull align 8 dereferenceable(8) %11, ptr noundef %12, ptr noundef nonnull align 1 dereferenceable(1) %13)
  %14 = load ptr, ptr %5, align 8
  %15 = icmp eq ptr %14, null
  br i1 %15, label %16, label %22

16:                                               ; preds = %3
  invoke void @_ZSt19__throw_logic_errorPKc(ptr noundef @.str.570) #19
          to label %17 unwind label %18

17:                                               ; preds = %16
  unreachable

18:                                               ; preds = %26, %22, %16
  %19 = landingpad { ptr, i32 }
          cleanup
  %20 = extractvalue { ptr, i32 } %19, 0
  store ptr %20, ptr %7, align 8
  %21 = extractvalue { ptr, i32 } %19, 1
  store i32 %21, ptr %8, align 4
  call void @_ZNSt7__cxx1112basic_stringIcSt11char_traitsIcESaIcEE12_Alloc_hiderD2Ev(ptr noundef nonnull align 8 dereferenceable(8) %11) #3
  br label %31

22:                                               ; preds = %3
  %23 = load ptr, ptr %5, align 8
  %24 = load ptr, ptr %5, align 8
  %25 = invoke noundef i64 @_ZNSt11char_traitsIcE6lengthEPKc(ptr noundef %24)
          to label %26 unwind label %18

26:                                               ; preds = %22
  %27 = getelementptr inbounds i8, ptr %23, i64 %25
  store ptr %27, ptr %9, align 8
  %28 = load ptr, ptr %5, align 8
  %29 = load ptr, ptr %9, align 8
  invoke void @_ZNSt7__cxx1112basic_stringIcSt11char_traitsIcESaIcEE12_M_constructIPKcEEvT_S8_St20forward_iterator_tag(ptr noundef nonnull align 8 dereferenceable(32) %10, ptr noundef %28, ptr noundef %29)
          to label %30 unwind label %18

30:                                               ; preds = %26
  ret void

31:                                               ; preds = %18
  %32 = load ptr, ptr %7, align 8
  %33 = load i32, ptr %8, align 4
  %34 = insertvalue { ptr, i32 } poison, ptr %32, 0
  %35 = insertvalue { ptr, i32 } %34, i32 %33, 1
  resume { ptr, i32 } %35
}

; Function Attrs: mustprogress uwtable
define internal noundef i32 @_ZL13dumpTreeLevelv() #4 personality ptr @__gxx_personality_v0 {
  %1 = alloca i32, align 4
  %2 = alloca i32, align 4
  %3 = alloca %"class.std::__cxx11::basic_string", align 8
  %4 = alloca %"class.std::allocator.0", align 1
  %5 = alloca ptr, align 8
  %6 = alloca i32, align 4
  %7 = alloca i32, align 4
  %8 = alloca %"class.std::__cxx11::basic_string", align 8
  %9 = alloca %"class.std::allocator.0", align 1
  %10 = alloca i32, align 4
  %11 = load i32, ptr @_ZZL13dumpTreeLevelvE5level, align 4
  %12 = icmp slt i32 %11, 0
  %13 = xor i1 %12, true
  %14 = xor i1 %13, true
  br i1 %14, label %15, label %54

15:                                               ; preds = %0
  call void @_ZNSaIcEC1Ev(ptr noundef nonnull align 1 dereferenceable(1) %4) #3
  invoke void @_ZNSt7__cxx1112basic_stringIcSt11char_traitsIcESaIcEEC2IS3_EEPKcRKS3_(ptr noundef nonnull align 8 dereferenceable(32) %3, ptr noundef @.str.569, ptr noundef nonnull align 1 dereferenceable(1) %4)
          to label %16 unwind label %34

16:                                               ; preds = %15
  %17 = invoke noundef i32 @_ZNK9V3Options9dumpLevelERKNSt7__cxx1112basic_stringIcSt11char_traitsIcESaIcEEE(ptr noundef nonnull align 8 dereferenceable(1560) getelementptr inbounds (%class.V3Global, ptr @v3Global, i32 0, i32 22), ptr noundef nonnull align 8 dereferenceable(32) %3)
          to label %18 unwind label %38

18:                                               ; preds = %16
  call void @_ZNSt7__cxx1112basic_stringIcSt11char_traitsIcESaIcEED1Ev(ptr noundef nonnull align 8 dereferenceable(32) %3) #3
  call void @_ZNSaIcED1Ev(ptr noundef nonnull align 1 dereferenceable(1) %4) #3
  store i32 %17, ptr %2, align 4
  call void @_ZNSaIcEC1Ev(ptr noundef nonnull align 1 dereferenceable(1) %9) #3
  invoke void @_ZNSt7__cxx1112basic_stringIcSt11char_traitsIcESaIcEEC2IS3_EEPKcRKS3_(ptr noundef nonnull align 8 dereferenceable(32) %8, ptr noundef @.str.1, ptr noundef nonnull align 1 dereferenceable(1) %9)
          to label %19 unwind label %43

19:                                               ; preds = %18
  %20 = invoke noundef i32 @_ZNK9V3Options12dumpSrcLevelERKNSt7__cxx1112basic_stringIcSt11char_traitsIcESaIcEEE(ptr noundef nonnull align 8 dereferenceable(1560) getelementptr inbounds (%class.V3Global, ptr @v3Global, i32 0, i32 22), ptr noundef nonnull align 8 dereferenceable(32) %8)
          to label %21 unwind label %47

21:                                               ; preds = %19
  call void @_ZNSt7__cxx1112basic_stringIcSt11char_traitsIcESaIcEED1Ev(ptr noundef nonnull align 8 dereferenceable(32) %8) #3
  call void @_ZNSaIcED1Ev(ptr noundef nonnull align 1 dereferenceable(1) %9) #3
  store i32 %20, ptr %7, align 4
  %22 = load i32, ptr %2, align 4
  %23 = load i32, ptr %7, align 4
  %24 = icmp uge i32 %22, %23
  br i1 %24, label %25, label %27

25:                                               ; preds = %21
  %26 = load i32, ptr %2, align 4
  br label %29

27:                                               ; preds = %21
  %28 = load i32, ptr %7, align 4
  br label %29

29:                                               ; preds = %27, %25
  %30 = phi i32 [ %26, %25 ], [ %28, %27 ]
  store i32 %30, ptr %10, align 4
  %31 = call noundef zeroext i1 @_ZNK9V3Options9availableEv(ptr noundef nonnull align 8 dereferenceable(1560) getelementptr inbounds (%class.V3Global, ptr @v3Global, i32 0, i32 22))
  br i1 %31, label %52, label %32

32:                                               ; preds = %29
  %33 = load i32, ptr %10, align 4
  store i32 %33, ptr %1, align 4
  br label %56

34:                                               ; preds = %15
  %35 = landingpad { ptr, i32 }
          cleanup
  %36 = extractvalue { ptr, i32 } %35, 0
  store ptr %36, ptr %5, align 8
  %37 = extractvalue { ptr, i32 } %35, 1
  store i32 %37, ptr %6, align 4
  br label %42

38:                                               ; preds = %16
  %39 = landingpad { ptr, i32 }
          cleanup
  %40 = extractvalue { ptr, i32 } %39, 0
  store ptr %40, ptr %5, align 8
  %41 = extractvalue { ptr, i32 } %39, 1
  store i32 %41, ptr %6, align 4
  call void @_ZNSt7__cxx1112basic_stringIcSt11char_traitsIcESaIcEED1Ev(ptr noundef nonnull align 8 dereferenceable(32) %3) #3
  br label %42

42:                                               ; preds = %38, %34
  call void @_ZNSaIcED1Ev(ptr noundef nonnull align 1 dereferenceable(1) %4) #3
  br label %58

43:                                               ; preds = %18
  %44 = landingpad { ptr, i32 }
          cleanup
  %45 = extractvalue { ptr, i32 } %44, 0
  store ptr %45, ptr %5, align 8
  %46 = extractvalue { ptr, i32 } %44, 1
  store i32 %46, ptr %6, align 4
  br label %51

47:                                               ; preds = %19
  %48 = landingpad { ptr, i32 }
          cleanup
  %49 = extractvalue { ptr, i32 } %48, 0
  store ptr %49, ptr %5, align 8
  %50 = extractvalue { ptr, i32 } %48, 1
  store i32 %50, ptr %6, align 4
  call void @_ZNSt7__cxx1112basic_stringIcSt11char_traitsIcESaIcEED1Ev(ptr noundef nonnull align 8 dereferenceable(32) %8) #3
  br label %51

51:                                               ; preds = %47, %43
  call void @_ZNSaIcED1Ev(ptr noundef nonnull align 1 dereferenceable(1) %9) #3
  br label %58

52:                                               ; preds = %29
  %53 = load i32, ptr %10, align 4
  store i32 %53, ptr @_ZZL13dumpTreeLevelvE5level, align 4
  br label %54

54:                                               ; preds = %52, %0
  %55 = load i32, ptr @_ZZL13dumpTreeLevelvE5level, align 4
  store i32 %55, ptr %1, align 4
  br label %56

56:                                               ; preds = %54, %32
  %57 = load i32, ptr %1, align 4
  ret i32 %57

58:                                               ; preds = %51, %42
  %59 = load ptr, ptr %5, align 8
  %60 = load i32, ptr %6, align 4
  %61 = insertvalue { ptr, i32 } poison, ptr %59, 0
  %62 = insertvalue { ptr, i32 } %61, i32 %60, 1
  resume { ptr, i32 } %62
}